; Function Attrs: nounwind uwtable
define void @Aig_ManPrintVerbose(ptr noundef %0, i32 noundef %1) local_unnamed_addr #1 {
  %3 = tail call i32 (ptr, ...) @printf(ptr noundef nonnull dereferenceable(1) @.str.27)
  %4 = getelementptr inbounds nuw i8, ptr %0, i64 16
  %5 = load ptr, ptr %4, align 8, !tbaa !53
  %6 = getelementptr i8, ptr %5, i64 4
  %.val1821 = load i32, ptr %6, align 4, !tbaa !22
  %7 = icmp sgt i32 %.val1821, 0
  br i1 %7, label %.lr.ph, label %.critedge

.lr.ph:                                           ; preds = %2, %.lr.ph
  %indvars.iv = phi i64 [ %indvars.iv.next, %.lr.ph ], [ 0, %2 ]
  %8 = phi ptr [ %13, %.lr.ph ], [ %5, %2 ]
  %9 = getelementptr i8, ptr %8, i64 8
  %.val20 = load ptr, ptr %9, align 8, !tbaa !24
  %10 = getelementptr inbounds nuw ptr, ptr %.val20, i64 %indvars.iv
  %11 = load ptr, ptr %10, align 8, !tbaa !25
  %12 = tail call i32 (ptr, ...) @printf(ptr noundef nonnull dereferenceable(1) @.str.28, ptr noundef %11)
  %indvars.iv.next = add nuw nsw i64 %indvars.iv, 1
  %13 = load ptr, ptr %4, align 8, !tbaa !53
  %14 = getelementptr i8, ptr %13, i64 4
  %.val18 = load i32, ptr %14, align 4, !tbaa !22
  %15 = sext i32 %.val18 to i64
  %16 = icmp slt i64 %indvars.iv.next, %15
  br i1 %16, label %.lr.ph, label %.critedge, !llvm.loop !54

.critedge:                                        ; preds = %.lr.ph, %2
  %putchar = tail call i32 @putchar(i32 10)
  %17 = tail call ptr @Aig_ManDfs(ptr noundef nonnull %0, i32 noundef 0) #25
  %18 = getelementptr i8, ptr %17, i64 4
  %.val23 = load i32, ptr %18, align 4, !tbaa !22
  %19 = icmp sgt i32 %.val23, 0
  br i1 %19, label %.lr.ph25, label %.critedge2

.lr.ph25:                                         ; preds = %.critedge
  %20 = getelementptr i8, ptr %17, i64 8
  br label %21

21:                                               ; preds = %.lr.ph25, %21
  %indvars.iv27 = phi i64 [ 0, %.lr.ph25 ], [ %indvars.iv.next28, %21 ]
  %.val19 = load ptr, ptr %20, align 8, !tbaa !24
  %22 = getelementptr inbounds nuw ptr, ptr %.val19, i64 %indvars.iv27
  %23 = load ptr, ptr %22, align 8, !tbaa !25
  tail call void @Aig_ObjPrintVerbose(ptr noundef %23, i32 poison)
  %putchar17 = tail call i32 @putchar(i32 10)
  %indvars.iv.next28 = add nuw nsw i64 %indvars.iv27, 1
  %.val = load i32, ptr %18, align 4, !tbaa !22
  %24 = sext i32 %.val to i64
  %25 = icmp slt i64 %indvars.iv.next28, %24
  br i1 %25, label %21, label %.critedge2, !llvm.loop !55

.critedge2:                                       ; preds = %21, %.critedge
  %putchar16 = tail call i32 @putchar(i32 10)
  %26 = getelementptr inbounds nuw i8, ptr %17, i64 8
  %27 = load ptr, ptr %26, align 8, !tbaa !24
  %.not.i = icmp eq ptr %27, null
  br i1 %.not.i, label %Vec_PtrFree.exit, label %28

28:                                               ; preds = %.critedge2
  tail call void @free(ptr noundef nonnull %27) #25
  br label %Vec_PtrFree.exit

Vec_PtrFree.exit:                                 ; preds = %.critedge2, %28
  tail call void @free(ptr noundef nonnull %17) #25
  ret void
}